target datalayout = "e-m:e-p270:32:32-p271:32:32-p272:64:64-i64:64-i128:128-f80:128-n8:16:32:64-S128"
target triple = "x86_64-pc-linux-gnu"

%struct.Vec_Wrd_t_ = type { i32, i32, ptr }
%struct.Supp_Man_t_ = type { i32, i32, i32, i32, ptr, ptr, ptr, ptr, ptr, ptr, [2 x ptr], [2 x ptr], [2 x ptr], ptr, ptr, ptr, ptr, ptr, ptr, ptr, ptr, ptr, ptr, ptr, ptr, ptr }
%struct.Vec_Int_t_ = type { i32, i32, ptr }

; Function Attrs: inlinehint nounwind uwtable
define internal void @Abc_TtOrAnd(ptr noundef %0, ptr noundef %1, ptr noundef %2, i32 noundef %3) #2 {
  %5 = alloca ptr, align 8
  %6 = alloca ptr, align 8
  %7 = alloca ptr, align 8
  %8 = alloca i32, align 4
  %9 = alloca i32, align 4
  store ptr %0, ptr %5, align 8, !tbaa !10
  store ptr %1, ptr %6, align 8, !tbaa !10
  store ptr %2, ptr %7, align 8, !tbaa !10
  store i32 %3, ptr %8, align 4, !tbaa !8
  call void @llvm.lifetime.start.p0(i64 4, ptr %9) #15
  store i32 0, ptr %9, align 4, !tbaa !8
  br label %10

10:                                               ; preds = %32, %4
  %11 = load i32, ptr %9, align 4, !tbaa !8
  %12 = load i32, ptr %8, align 4, !tbaa !8
  %13 = icmp slt i32 %11, %12
  br i1 %13, label %14, label %35

14:                                               ; preds = %10
  %15 = load ptr, ptr %6, align 8, !tbaa !10
  %16 = load i32, ptr %9, align 4, !tbaa !8
  %17 = sext i32 %16 to i64
  %18 = getelementptr inbounds i64, ptr %15, i64 %17
  %19 = load i64, ptr %18, align 8, !tbaa !17
  %20 = load ptr, ptr %7, align 8, !tbaa !10
  %21 = load i32, ptr %9, align 4, !tbaa !8
  %22 = sext i32 %21 to i64
  %23 = getelementptr inbounds i64, ptr %20, i64 %22
  %24 = load i64, ptr %23, align 8, !tbaa !17
  %25 = and i64 %19, %24
  %26 = load ptr, ptr %5, align 8, !tbaa !10
  %27 = load i32, ptr %9, align 4, !tbaa !8
  %28 = sext i32 %27 to i64
  %29 = getelementptr inbounds i64, ptr %26, i64 %28
  %30 = load i64, ptr %29, align 8, !tbaa !17
  %31 = or i64 %30, %25
  store i64 %31, ptr %29, align 8, !tbaa !17
  br label %32

32:                                               ; preds = %14
  %33 = load i32, ptr %9, align 4, !tbaa !8
  %34 = add nsw i32 %33, 1
  store i32 %34, ptr %9, align 4, !tbaa !8
  br label %10, !llvm.loop !150

35:                                               ; preds = %10
  call void @llvm.lifetime.end.p0(i64 4, ptr %9) #15
  ret void
}

; Function Attrs: inlinehint nounwind uwtable
define internal void @Abc_TtAnd(ptr noundef %0, ptr noundef %1, ptr noundef %2, i32 noundef %3, i32 noundef %4) #2 {
  %6 = alloca ptr, align 8
  %7 = alloca ptr, align 8
  %8 = alloca ptr, align 8
  %9 = alloca i32, align 4
  %10 = alloca i32, align 4
  %11 = alloca i32, align 4
  store ptr %0, ptr %6, align 8, !tbaa !10
  store ptr %1, ptr %7, align 8, !tbaa !10
  store ptr %2, ptr %8, align 8, !tbaa !10
  store i32 %3, ptr %9, align 4, !tbaa !8
  store i32 %4, ptr %10, align 4, !tbaa !8
  call void @llvm.lifetime.start.p0(i64 4, ptr %11) #15
  %12 = load i32, ptr %10, align 4, !tbaa !8
  %13 = icmp ne i32 %12, 0
  br i1 %13, label %14, label %40

14:                                               ; preds = %5
  store i32 0, ptr %11, align 4, !tbaa !8
  br label %15

15:                                               ; preds = %36, %14
  %16 = load i32, ptr %11, align 4, !tbaa !8
  %17 = load i32, ptr %9, align 4, !tbaa !8
  %18 = icmp slt i32 %16, %17
  br i1 %18, label %19, label %39

19:                                               ; preds = %15
  %20 = load ptr, ptr %7, align 8, !tbaa !10
  %21 = load i32, ptr %11, align 4, !tbaa !8
  %22 = sext i32 %21 to i64
  %23 = getelementptr inbounds i64, ptr %20, i64 %22
  %24 = load i64, ptr %23, align 8, !tbaa !17
  %25 = load ptr, ptr %8, align 8, !tbaa !10
  %26 = load i32, ptr %11, align 4, !tbaa !8
  %27 = sext i32 %26 to i64
  %28 = getelementptr inbounds i64, ptr %25, i64 %27
  %29 = load i64, ptr %28, align 8, !tbaa !17
  %30 = and i64 %24, %29
  %31 = xor i64 %30, -1
  %32 = load ptr, ptr %6, align 8, !tbaa !10
  %33 = load i32, ptr %11, align 4, !tbaa !8
  %34 = sext i32 %33 to i64
  %35 = getelementptr inbounds i64, ptr %32, i64 %34
  store i64 %31, ptr %35, align 8, !tbaa !17
  br label %36

36:                                               ; preds = %19
  %37 = load i32, ptr %11, align 4, !tbaa !8
  %38 = add nsw i32 %37, 1
  store i32 %38, ptr %11, align 4, !tbaa !8
  br label %15, !llvm.loop !148

39:                                               ; preds = %15
  br label %65

40:                                               ; preds = %5
  store i32 0, ptr %11, align 4, !tbaa !8
  br label %41

41:                                               ; preds = %61, %40
  %42 = load i32, ptr %11, align 4, !tbaa !8
  %43 = load i32, ptr %9, align 4, !tbaa !8
  %44 = icmp slt i32 %42, %43
  br i1 %44, label %45, label %64

45:                                               ; preds = %41
  %46 = load ptr, ptr %7, align 8, !tbaa !10
  %47 = load i32, ptr %11, align 4, !tbaa !8
  %48 = sext i32 %47 to i64
  %49 = getelementptr inbounds i64, ptr %46, i64 %48
  %50 = load i64, ptr %49, align 8, !tbaa !17
  %51 = load ptr, ptr %8, align 8, !tbaa !10
  %52 = load i32, ptr %11, align 4, !tbaa !8
  %53 = sext i32 %52 to i64
  %54 = getelementptr inbounds i64, ptr %51, i64 %53
  %55 = load i64, ptr %54, align 8, !tbaa !17
  %56 = and i64 %50, %55
  %57 = load ptr, ptr %6, align 8, !tbaa !10
  %58 = load i32, ptr %11, align 4, !tbaa !8
  %59 = sext i32 %58 to i64
  %60 = getelementptr inbounds i64, ptr %57, i64 %59
  store i64 %56, ptr %60, align 8, !tbaa !17
  br label %61

61:                                               ; preds = %45
  %62 = load i32, ptr %11, align 4, !tbaa !8
  %63 = add nsw i32 %62, 1
  store i32 %63, ptr %11, align 4, !tbaa !8
  br label %41, !llvm.loop !149

64:                                               ; preds = %41
  br label %65

65:                                               ; preds = %64, %39
  call void @llvm.lifetime.end.p0(i64 4, ptr %11) #15
  ret void
}

; Function Attrs: inlinehint nounwind uwtable
define internal ptr @Vec_WrdEntryP(ptr noundef %0, i32 noundef %1) #2 {
  %3 = alloca ptr, align 8
  %4 = alloca i32, align 4
  store ptr %0, ptr %3, align 8, !tbaa !3
  store i32 %1, ptr %4, align 4, !tbaa !8
  %5 = load ptr, ptr %3, align 8, !tbaa !3
  %6 = getelementptr inbounds nuw %struct.Vec_Wrd_t_, ptr %5, i32 0, i32 2
  %7 = load ptr, ptr %6, align 8, !tbaa !16
  %8 = load i32, ptr %4, align 4, !tbaa !8
  %9 = sext i32 %8 to i64
  %10 = getelementptr inbounds i64, ptr %7, i64 %9
  ret ptr %10
}

; Function Attrs: inlinehint nounwind uwtable
define internal i32 @Vec_IntEntry(ptr noundef %0, i32 noundef %1) #2 {
  %3 = alloca ptr, align 8
  %4 = alloca i32, align 4
  store ptr %0, ptr %3, align 8, !tbaa !41
  store i32 %1, ptr %4, align 4, !tbaa !8
  %5 = load ptr, ptr %3, align 8, !tbaa !41
  %6 = getelementptr inbounds nuw %struct.Vec_Int_t_, ptr %5, i32 0, i32 2
  %7 = load ptr, ptr %6, align 8, !tbaa !59
  %8 = load i32, ptr %4, align 4, !tbaa !8
  %9 = sext i32 %8 to i64
  %10 = getelementptr inbounds i32, ptr %7, i64 %9
  %11 = load i32, ptr %10, align 4, !tbaa !8
  ret i32 %11
}

; Function Attrs: inlinehint nounwind uwtable
define internal i32 @Vec_IntSize(ptr noundef %0) #2 {
  %2 = alloca ptr, align 8
  store ptr %0, ptr %2, align 8, !tbaa !41
  %3 = load ptr, ptr %2, align 8, !tbaa !41
  %4 = getelementptr inbounds nuw %struct.Vec_Int_t_, ptr %3, i32 0, i32 1
  %5 = load i32, ptr %4, align 4, !tbaa !57
  ret i32 %5
}

; Function Attrs: nounwind uwtable
define void @Supp_ManFillBlock(ptr noundef %0, ptr noundef %1, ptr noundef %2) #0 {
  %4 = alloca ptr, align 8
  %5 = alloca ptr, align 8
  %6 = alloca ptr, align 8
  %7 = alloca i32, align 4
  %8 = alloca i32, align 4
  %9 = alloca i32, align 4
  %10 = alloca i32, align 4
  %11 = alloca ptr, align 8
  %12 = alloca ptr, align 8
  %13 = alloca ptr, align 8
  %14 = alloca ptr, align 8
  %15 = alloca ptr, align 8
  store ptr %0, ptr %4, align 8, !tbaa !24
  store ptr %1, ptr %5, align 8, !tbaa !41
  store ptr %2, ptr %6, align 8, !tbaa !3
  call void @llvm.lifetime.start.p0(i64 4, ptr %7) #15
  call void @llvm.lifetime.start.p0(i64 4, ptr %8) #15
  store i32 0, ptr %7, align 4, !tbaa !8
  br label %16

16:                                               ; preds = %93, %3
  %17 = load i32, ptr %7, align 4, !tbaa !8
  %18 = load ptr, ptr %5, align 8, !tbaa !41
  %19 = call i32 @Vec_IntSize(ptr noundef %18)
  %20 = icmp slt i32 %17, %19
  br i1 %20, label %21, label %25

21:                                               ; preds = %16
  %22 = load ptr, ptr %5, align 8, !tbaa !41
  %23 = load i32, ptr %7, align 4, !tbaa !8
  %24 = call i32 @Vec_IntEntry(ptr noundef %22, i32 noundef %23)
  store i32 %24, ptr %8, align 4, !tbaa !8
  br label %25

25:                                               ; preds = %21, %16
  %26 = phi i1 [ false, %16 ], [ true, %21 ]
  br i1 %26, label %27, label %96

27:                                               ; preds = %25
  call void @llvm.lifetime.start.p0(i64 4, ptr %9) #15
  %28 = load i32, ptr %8, align 4, !tbaa !8
  %29 = ashr i32 %28, 16
  store i32 %29, ptr %9, align 4, !tbaa !8
  call void @llvm.lifetime.start.p0(i64 4, ptr %10) #15
  %30 = load i32, ptr %8, align 4, !tbaa !8
  %31 = and i32 %30, 65535
  store i32 %31, ptr %10, align 4, !tbaa !8
  call void @llvm.lifetime.start.p0(i64 8, ptr %11) #15
  %32 = load ptr, ptr %4, align 8, !tbaa !24
  %33 = getelementptr inbounds nuw %struct.Supp_Man_t_, ptr %32, i32 0, i32 12
  %34 = getelementptr inbounds [2 x ptr], ptr %33, i64 0, i64 0
  %35 = load ptr, ptr %34, align 8, !tbaa !3
  %36 = load i32, ptr %9, align 4, !tbaa !8
  %37 = load ptr, ptr %4, align 8, !tbaa !24
  %38 = getelementptr inbounds nuw %struct.Supp_Man_t_, ptr %37, i32 0, i32 3
  %39 = load i32, ptr %38, align 4, !tbaa !74
  %40 = mul nsw i32 %36, %39
  %41 = call ptr @Vec_WrdEntryP(ptr noundef %35, i32 noundef %40)
  store ptr %41, ptr %11, align 8, !tbaa !10
  call void @llvm.lifetime.start.p0(i64 8, ptr %12) #15
  %42 = load ptr, ptr %4, align 8, !tbaa !24
  %43 = getelementptr inbounds nuw %struct.Supp_Man_t_, ptr %42, i32 0, i32 12
  %44 = getelementptr inbounds [2 x ptr], ptr %43, i64 0, i64 0
  %45 = load ptr, ptr %44, align 8, !tbaa !3
  %46 = load i32, ptr %10, align 4, !tbaa !8
  %47 = load ptr, ptr %4, align 8, !tbaa !24
  %48 = getelementptr inbounds nuw %struct.Supp_Man_t_, ptr %47, i32 0, i32 3
  %49 = load i32, ptr %48, align 4, !tbaa !74
  %50 = mul nsw i32 %46, %49
  %51 = call ptr @Vec_WrdEntryP(ptr noundef %45, i32 noundef %50)
  store ptr %51, ptr %12, align 8, !tbaa !10
  call void @llvm.lifetime.start.p0(i64 8, ptr %13) #15
  %52 = load ptr, ptr %4, align 8, !tbaa !24
  %53 = getelementptr inbounds nuw %struct.Supp_Man_t_, ptr %52, i32 0, i32 12
  %54 = getelementptr inbounds [2 x ptr], ptr %53, i64 0, i64 1
  %55 = load ptr, ptr %54, align 8, !tbaa !3
  %56 = load i32, ptr %9, align 4, !tbaa !8
  %57 = load ptr, ptr %4, align 8, !tbaa !24
  %58 = getelementptr inbounds nuw %struct.Supp_Man_t_, ptr %57, i32 0, i32 3
  %59 = load i32, ptr %58, align 4, !tbaa !74
  %60 = mul nsw i32 %56, %59
  %61 = call ptr @Vec_WrdEntryP(ptr noundef %55, i32 noundef %60)
  store ptr %61, ptr %13, align 8, !tbaa !10
  call void @llvm.lifetime.start.p0(i64 8, ptr %14) #15
  %62 = load ptr, ptr %4, align 8, !tbaa !24
  %63 = getelementptr inbounds nuw %struct.Supp_Man_t_, ptr %62, i32 0, i32 12
  %64 = getelementptr inbounds [2 x ptr], ptr %63, i64 0, i64 1
  %65 = load ptr, ptr %64, align 8, !tbaa !3
  %66 = load i32, ptr %10, align 4, !tbaa !8
  %67 = load ptr, ptr %4, align 8, !tbaa !24
  %68 = getelementptr inbounds nuw %struct.Supp_Man_t_, ptr %67, i32 0, i32 3
  %69 = load i32, ptr %68, align 4, !tbaa !74
  %70 = mul nsw i32 %66, %69
  %71 = call ptr @Vec_WrdEntryP(ptr noundef %65, i32 noundef %70)
  store ptr %71, ptr %14, align 8, !tbaa !10
  call void @llvm.lifetime.start.p0(i64 8, ptr %15) #15
  %72 = load ptr, ptr %4, align 8, !tbaa !24
  %73 = getelementptr inbounds nuw %struct.Supp_Man_t_, ptr %72, i32 0, i32 15
  %74 = load ptr, ptr %73, align 8, !tbaa !77
  %75 = load i32, ptr %7, align 4, !tbaa !8
  %76 = load ptr, ptr %4, align 8, !tbaa !24
  %77 = getelementptr inbounds nuw %struct.Supp_Man_t_, ptr %76, i32 0, i32 3
  %78 = load i32, ptr %77, align 4, !tbaa !74
  %79 = mul nsw i32 %75, %78
  %80 = call ptr @Vec_WrdEntryP(ptr noundef %74, i32 noundef %79)
  store ptr %80, ptr %15, align 8, !tbaa !10
  %81 = load ptr, ptr %15, align 8, !tbaa !10
  %82 = load ptr, ptr %11, align 8, !tbaa !10
  %83 = load ptr, ptr %14, align 8, !tbaa !10
  %84 = load ptr, ptr %4, align 8, !tbaa !24
  %85 = getelementptr inbounds nuw %struct.Supp_Man_t_, ptr %84, i32 0, i32 3
  %86 = load i32, ptr %85, align 4, !tbaa !74
  call void @Abc_TtAnd(ptr noundef %81, ptr noundef %82, ptr noundef %83, i32 noundef %86, i32 noundef 0)
  %87 = load ptr, ptr %15, align 8, !tbaa !10
  %88 = load ptr, ptr %12, align 8, !tbaa !10
  %89 = load ptr, ptr %13, align 8, !tbaa !10
  %90 = load ptr, ptr %4, align 8, !tbaa !24
  %91 = getelementptr inbounds nuw %struct.Supp_Man_t_, ptr %90, i32 0, i32 3
  %92 = load i32, ptr %91, align 4, !tbaa !74
  call void @Abc_TtOrAnd(ptr noundef %87, ptr noundef %88, ptr noundef %89, i32 noundef %92)
  call void @llvm.lifetime.end.p0(i64 8, ptr %15) #15
  call void @llvm.lifetime.end.p0(i64 8, ptr %14) #15
  call void @llvm.lifetime.end.p0(i64 8, ptr %13) #15
  call void @llvm.lifetime.end.p0(i64 8, ptr %12) #15
  call void @llvm.lifetime.end.p0(i64 8, ptr %11) #15
  call void @llvm.lifetime.end.p0(i64 4, ptr %10) #15
  call void @llvm.lifetime.end.p0(i64 4, ptr %9) #15
  br label %93

93:                                               ; preds = %27
  %94 = load i32, ptr %7, align 4, !tbaa !8
  %95 = add nsw i32 %94, 1
  store i32 %95, ptr %7, align 4, !tbaa !8
  br label %16, !llvm.loop !147

96:                                               ; preds = %25
  %97 = load ptr, ptr %4, align 8, !tbaa !24
  %98 = getelementptr inbounds nuw %struct.Supp_Man_t_, ptr %97, i32 0, i32 15
  %99 = load ptr, ptr %98, align 8, !tbaa !77
  %100 = load ptr, ptr %4, align 8, !tbaa !24
  %101 = getelementptr inbounds nuw %struct.Supp_Man_t_, ptr %100, i32 0, i32 3
  %102 = load i32, ptr %101, align 4, !tbaa !74
  %103 = load ptr, ptr %6, align 8, !tbaa !3
  call void @Extra_BitMatrixTransposeP(ptr noundef %99, i32 noundef %102, ptr noundef %103, i32 noundef 1)
  call void @llvm.lifetime.end.p0(i64 4, ptr %8) #15
  call void @llvm.lifetime.end.p0(i64 4, ptr %7) #15
  ret void
}