; Function Attrs: nounwind uwtable
define void @Supp_ManFillBlock(ptr noundef readonly captures(none) %0, ptr noundef readonly captures(none) %1, ptr noundef %2) local_unnamed_addr #3 {
  %4 = getelementptr i8, ptr %1, i64 4
  %.val36 = load i32, ptr %4, align 4, !tbaa !30
  %5 = icmp sgt i32 %.val36, 0
  br i1 %5, label %.lr.ph, label %..critedge_crit_edge

..critedge_crit_edge:                             ; preds = %3
  %.phi.trans.insert = getelementptr inbounds nuw i8, ptr %0, i64 128
  %.pre = load ptr, ptr %.phi.trans.insert, align 8, !tbaa !79
  %.phi.trans.insert47 = getelementptr inbounds nuw i8, ptr %0, i64 12
  %.pre48 = load i32, ptr %.phi.trans.insert47, align 4, !tbaa !72
  br label %.critedge

.lr.ph:                                           ; preds = %3
  %6 = getelementptr i8, ptr %1, i64 8
  %.val37 = load ptr, ptr %6, align 8, !tbaa !34
  %7 = getelementptr inbounds nuw i8, ptr %0, i64 96
  %8 = load ptr, ptr %7, align 8, !tbaa !59
  %9 = getelementptr inbounds nuw i8, ptr %0, i64 12
  %10 = load i32, ptr %9, align 4, !tbaa !72
  %11 = getelementptr i8, ptr %8, i64 8
  %.val35 = load ptr, ptr %11, align 8, !tbaa !10
  %12 = getelementptr inbounds nuw i8, ptr %0, i64 104
  %13 = load ptr, ptr %12, align 8, !tbaa !59
  %14 = getelementptr i8, ptr %13, i64 8
  %.val33 = load ptr, ptr %14, align 8, !tbaa !10
  %15 = getelementptr inbounds nuw i8, ptr %0, i64 128
  %16 = load ptr, ptr %15, align 8, !tbaa !79
  %17 = getelementptr i8, ptr %16, i64 8
  %.val = load ptr, ptr %17, align 8, !tbaa !10
  %18 = icmp sgt i32 %10, 0
  %wide.trip.count.i = zext i32 %10 to i64
  br i1 %18, label %.lr.ph.preheader.i.us.preheader, label %.critedge

.lr.ph.preheader.i.us.preheader:                  ; preds = %.lr.ph
  %wide.trip.count = zext nneg i32 %.val36 to i64
  br label %.lr.ph.preheader.i.us

.lr.ph.preheader.i.us:                            ; preds = %.lr.ph.preheader.i.us.preheader, %Abc_TtOrAnd.exit.loopexit.us
  %indvars.iv = phi i64 [ 0, %.lr.ph.preheader.i.us.preheader ], [ %indvars.iv.next, %Abc_TtOrAnd.exit.loopexit.us ]
  %19 = getelementptr inbounds nuw i32, ptr %.val37, i64 %indvars.iv
  %20 = load i32, ptr %19, align 4, !tbaa !35
  %21 = ashr i32 %20, 16
  %22 = and i32 %20, 65535
  %23 = mul nsw i32 %10, %21
  %24 = sext i32 %23 to i64
  %25 = getelementptr inbounds i64, ptr %.val35, i64 %24
  %26 = mul nuw nsw i32 %10, %22
  %27 = zext nneg i32 %26 to i64
  %28 = getelementptr inbounds nuw i64, ptr %.val35, i64 %27
  %29 = getelementptr inbounds nuw i64, ptr %.val33, i64 %27
  %30 = mul nuw nsw i64 %indvars.iv, %wide.trip.count.i
  %31 = getelementptr inbounds nuw i64, ptr %.val, i64 %30
  br label %.lr.ph.i.us

.lr.ph.i.us:                                      ; preds = %.lr.ph.i.us, %.lr.ph.preheader.i.us
  %indvars.iv.i.us = phi i64 [ 0, %.lr.ph.preheader.i.us ], [ %indvars.iv.next.i.us, %.lr.ph.i.us ]
  %32 = getelementptr inbounds nuw i64, ptr %25, i64 %indvars.iv.i.us
  %33 = load i64, ptr %32, align 8, !tbaa !11
  %34 = getelementptr inbounds nuw i64, ptr %29, i64 %indvars.iv.i.us
  %35 = load i64, ptr %34, align 8, !tbaa !11
  %36 = and i64 %35, %33
  %37 = getelementptr inbounds nuw i64, ptr %31, i64 %indvars.iv.i.us
  store i64 %36, ptr %37, align 8, !tbaa !11
  %indvars.iv.next.i.us = add nuw nsw i64 %indvars.iv.i.us, 1
  %exitcond.not.i.us = icmp eq i64 %indvars.iv.next.i.us, %wide.trip.count.i
  br i1 %exitcond.not.i.us, label %.lr.ph.i40.us.preheader, label %.lr.ph.i.us, !llvm.loop !135

.lr.ph.i40.us.preheader:                          ; preds = %.lr.ph.i.us
  %38 = getelementptr inbounds i64, ptr %.val33, i64 %24
  br label %.lr.ph.i40.us

.lr.ph.i40.us:                                    ; preds = %.lr.ph.i40.us.preheader, %.lr.ph.i40.us
  %indvars.iv.i41.us = phi i64 [ %indvars.iv.next.i42.us, %.lr.ph.i40.us ], [ 0, %.lr.ph.i40.us.preheader ]
  %39 = getelementptr inbounds nuw i64, ptr %28, i64 %indvars.iv.i41.us
  %40 = load i64, ptr %39, align 8, !tbaa !11
  %41 = getelementptr inbounds nuw i64, ptr %38, i64 %indvars.iv.i41.us
  %42 = load i64, ptr %41, align 8, !tbaa !11
  %43 = and i64 %42, %40
  %44 = getelementptr inbounds nuw i64, ptr %31, i64 %indvars.iv.i41.us
  %45 = load i64, ptr %44, align 8, !tbaa !11
  %46 = or i64 %45, %43
  store i64 %46, ptr %44, align 8, !tbaa !11
  %indvars.iv.next.i42.us = add nuw nsw i64 %indvars.iv.i41.us, 1
  %exitcond.not.i43.us = icmp eq i64 %indvars.iv.next.i42.us, %wide.trip.count.i
  br i1 %exitcond.not.i43.us, label %Abc_TtOrAnd.exit.loopexit.us, label %.lr.ph.i40.us, !llvm.loop !136

Abc_TtOrAnd.exit.loopexit.us:                     ; preds = %.lr.ph.i40.us
  %indvars.iv.next = add nuw nsw i64 %indvars.iv, 1
  %exitcond.not = icmp eq i64 %indvars.iv.next, %wide.trip.count
  br i1 %exitcond.not, label %.critedge, label %.lr.ph.preheader.i.us, !llvm.loop !137

.critedge:                                        ; preds = %Abc_TtOrAnd.exit.loopexit.us, %.lr.ph, %..critedge_crit_edge
  %47 = phi i32 [ %.pre48, %..critedge_crit_edge ], [ %10, %.lr.ph ], [ %10, %Abc_TtOrAnd.exit.loopexit.us ]
  %48 = phi ptr [ %.pre, %..critedge_crit_edge ], [ %16, %.lr.ph ], [ %16, %Abc_TtOrAnd.exit.loopexit.us ]
  tail call void @Extra_BitMatrixTransposeP(ptr noundef %48, i32 noundef %47, ptr noundef %2, i32 noundef 1) #32
  ret void
}